; Function Attrs: mustprogress nounwind uwtable
define hidden void @_ZN6Assimp3FBX5ScopeD2Ev(ptr noundef nonnull align 8 dereferenceable(48) %this) unnamed_addr #7 align 2 personality ptr @__gxx_personality_v0 {
entry:
  %_M_left.i.i = getelementptr inbounds i8, ptr %this, i64 24
  %0 = load ptr, ptr %_M_left.i.i, align 8
  %add.ptr.i.i = getelementptr inbounds i8, ptr %this, i64 8
  %cmp.i.not4 = icmp eq ptr %0, %add.ptr.i.i
  br i1 %cmp.i.not4, label %for.end, label %for.body

for.body:                                         ; preds = %entry, %for.body
  %__begin2.sroa.0.05 = phi ptr [ %call.i, %for.body ], [ %0, %entry ]
  %second = getelementptr inbounds i8, ptr %__begin2.sroa.0.05, i64 64
  %1 = load ptr, ptr %second, align 8
  tail call void @_ZN6Assimp3FBX7ElementD2Ev(ptr noundef nonnull align 8 dereferenceable(40) %1) #21
  %call.i = tail call noundef ptr @_ZSt18_Rb_tree_incrementPSt18_Rb_tree_node_base(ptr noundef %__begin2.sroa.0.05) #25
  %cmp.i.not = icmp eq ptr %call.i, %add.ptr.i.i
  br i1 %cmp.i.not, label %for.end, label %for.body

for.end:                                          ; preds = %for.body, %entry
  %_M_parent.i.i.i.i = getelementptr inbounds i8, ptr %this, i64 16
  %2 = load ptr, ptr %_M_parent.i.i.i.i, align 8
  invoke void @_ZNSt8_Rb_treeINSt7__cxx1112basic_stringIcSt11char_traitsIcESaIcEEESt4pairIKS5_PN6Assimp3FBX7ElementEESt10_Select1stISC_ESt4lessIS5_ESaISC_EE8_M_eraseEPSt13_Rb_tree_nodeISC_E(ptr noundef nonnull align 8 dereferenceable(48) %this, ptr noundef %2)
          to label %_ZNSt8multimapINSt7__cxx1112basic_stringIcSt11char_traitsIcESaIcEEEPN6Assimp3FBX7ElementESt4lessIS5_ESaISt4pairIKS5_S9_EEED2Ev.exit unwind label %terminate.lpad.i.i

terminate.lpad.i.i:                               ; preds = %for.end
  %3 = landingpad { ptr, i32 }
          catch ptr null
  %4 = extractvalue { ptr, i32 } %3, 0
  tail call void @__clang_call_terminate(ptr %4) #26
  unreachable

_ZNSt8multimapINSt7__cxx1112basic_stringIcSt11char_traitsIcESaIcEEEPN6Assimp3FBX7ElementESt4lessIS5_ESaISt4pairIKS5_S9_EEED2Ev.exit: ; preds = %for.end
  ret void
}